; Function Attrs: mustprogress nounwind willreturn memory(readwrite, argmem: none) uwtable
define noalias noundef ptr @OSQPVectorf_malloc(i64 noundef %0) local_unnamed_addr #2 {
  %2 = tail call noalias dereferenceable_or_null(16) ptr @malloc(i64 noundef 16) #18
  %.not = icmp eq ptr %2, null
  br i1 %.not, label %10, label %3

3:                                                ; preds = %1
  %4 = getelementptr inbounds i8, ptr %2, i64 8
  store i64 %0, ptr %4, align 8
  %.not11 = icmp eq i64 %0, 0
  br i1 %.not11, label %9, label %5

5:                                                ; preds = %3
  %6 = shl i64 %0, 3
  %7 = tail call noalias ptr @malloc(i64 noundef %6) #18
  store ptr %7, ptr %2, align 8
  %.not12 = icmp eq ptr %7, null
  br i1 %.not12, label %8, label %10

8:                                                ; preds = %5
  tail call void @free(ptr noundef nonnull %2) #19
  br label %10

9:                                                ; preds = %3
  store ptr null, ptr %2, align 8
  br label %10

10:                                               ; preds = %9, %8, %5, %1
  %.0 = phi ptr [ %2, %5 ], [ null, %8 ], [ %2, %9 ], [ null, %1 ]
  ret ptr %.0
}